; Function Attrs: mustprogress nofree nounwind willreturn memory(read, inaccessiblemem: none) uwtable
define range(i64 -1, 9223372036854775807) i64 @gguf_find_key(ptr noundef readonly captures(none) %0, ptr noundef readonly captures(none) %1) local_unnamed_addr #10 {
  %3 = getelementptr inbounds nuw i8, ptr %0, i64 8
  %4 = getelementptr inbounds nuw i8, ptr %0, i64 16
  %5 = load ptr, ptr %4, align 8, !tbaa !49
  %6 = load ptr, ptr %3, align 8, !tbaa !48
  %7 = ptrtoint ptr %5 to i64
  %8 = ptrtoint ptr %6 to i64
  %9 = sub i64 %7, %8
  %10 = icmp sgt i64 %9, 0
  br i1 %10, label %gguf_get_key.exit.preheader, label %gguf_get_key.exit._crit_edge

gguf_get_key.exit.preheader:                      ; preds = %2
  %11 = udiv exact i64 %9, 88
  %12 = tail call i64 @llvm.umax.i64(i64 %11, i64 1)
  br label %gguf_get_key.exit

gguf_get_key.exit:                                ; preds = %gguf_get_key.exit.preheader, %17
  %.09 = phi i64 [ %18, %17 ], [ 0, %gguf_get_key.exit.preheader ]
  %13 = getelementptr inbounds nuw %struct.gguf_kv, ptr %6, i64 %.09
  %14 = load ptr, ptr %13, align 8, !tbaa !60
  %15 = tail call i32 @strcmp(ptr noundef nonnull dereferenceable(1) %1, ptr noundef nonnull dereferenceable(1) %14) #27
  %16 = icmp eq i32 %15, 0
  br i1 %16, label %gguf_get_key.exit._crit_edge, label %17

17:                                               ; preds = %gguf_get_key.exit
  %18 = add nuw nsw i64 %.09, 1
  %exitcond.not = icmp eq i64 %18, %12
  br i1 %exitcond.not, label %gguf_get_key.exit._crit_edge, label %gguf_get_key.exit, !llvm.loop !63

gguf_get_key.exit._crit_edge:                     ; preds = %17, %gguf_get_key.exit, %2
  %.08 = phi i64 [ -1, %2 ], [ %.09, %gguf_get_key.exit ], [ -1, %17 ]
  ret i64 %.08
}